target datalayout = "e-m:e-p270:32:32-p271:32:32-p272:64:64-i64:64-i128:128-f80:128-n8:16:32:64-S128"
target triple = "x86_64-pc-linux-gnu"

; Function Attrs: mustprogress nounwind uwtable
define linkonce_odr hidden noundef zeroext i1 @_ZNK4llvm3opt7ArgList6hasArgIJN5clang6driver7options2IDES6_S6_EEEbDpT_(ptr noundef nonnull align 8 dereferenceable(176) %0, i32 noundef %1, i32 noundef %2, i32 noundef %3) #0 comdat align 2 {
  %5 = alloca ptr, align 8
  %6 = alloca i32, align 4
  %7 = alloca i32, align 4
  %8 = alloca i32, align 4
  store ptr %0, ptr %5, align 8
  store i32 %1, ptr %6, align 4
  store i32 %2, ptr %7, align 4
  store i32 %3, ptr %8, align 4
  %9 = load ptr, ptr %5, align 8
  %10 = load i32, ptr %6, align 4
  %11 = load i32, ptr %7, align 4
  %12 = load i32, ptr %8, align 4
  %13 = call noundef ptr @_ZNK4llvm3opt7ArgList10getLastArgIJN5clang6driver7options2IDES6_S6_EEEPNS0_3ArgEDpT_(ptr noundef nonnull align 8 dereferenceable(176) %9, i32 noundef %10, i32 noundef %11, i32 noundef %12)
  %14 = icmp ne ptr %13, null
  ret i1 %14
}

; Function Attrs: mustprogress nounwind uwtable
define hidden void @_ZNK5clang6driver10toolchains11Generic_GCC28AddClangCXXStdlibIncludeArgsERKN4llvm3opt7ArgListERNS3_11SmallVectorIPKcLj16EEE(ptr noundef nonnull align 8 dereferenceable(4488) %0, ptr noundef nonnull align 8 dereferenceable(176) %1, ptr noundef nonnull align 8 dereferenceable(144) %2) unnamed_addr #0 align 2 {
  %4 = alloca ptr, align 8
  %5 = alloca ptr, align 8
  %6 = alloca ptr, align 8
  store ptr %0, ptr %4, align 8
  store ptr %1, ptr %5, align 8
  store ptr %2, ptr %6, align 8
  %7 = load ptr, ptr %4, align 8
  %8 = load ptr, ptr %5, align 8
  %9 = call noundef zeroext i1 @_ZNK4llvm3opt7ArgList6hasArgIJN5clang6driver7options2IDES6_S6_EEEbDpT_(ptr noundef nonnull align 8 dereferenceable(176) %8, i32 noundef 2922, i32 noundef 2921, i32 noundef 2924)
  br i1 %9, label %10, label %11

10:                                               ; preds = %3
  br label %29

11:                                               ; preds = %3
  %12 = load ptr, ptr %5, align 8
  %13 = load ptr, ptr %7, align 8
  %14 = getelementptr inbounds ptr, ptr %13, i64 73
  %15 = load ptr, ptr %14, align 8
  %16 = call noundef i32 %15(ptr noundef nonnull align 8 dereferenceable(2168) %7, ptr noundef nonnull align 8 dereferenceable(176) %12)
  switch i32 %16, label %29 [
    i32 0, label %17
    i32 1, label %23
  ]

17:                                               ; preds = %11
  %18 = load ptr, ptr %5, align 8
  %19 = load ptr, ptr %6, align 8
  %20 = load ptr, ptr %7, align 8
  %21 = getelementptr inbounds ptr, ptr %20, i64 92
  %22 = load ptr, ptr %21, align 8
  call void %22(ptr noundef nonnull align 8 dereferenceable(4488) %7, ptr noundef nonnull align 8 dereferenceable(176) %18, ptr noundef nonnull align 8 dereferenceable(144) %19)
  br label %29

23:                                               ; preds = %11
  %24 = load ptr, ptr %5, align 8
  %25 = load ptr, ptr %6, align 8
  %26 = load ptr, ptr %7, align 8
  %27 = getelementptr inbounds ptr, ptr %26, i64 93
  %28 = load ptr, ptr %27, align 8
  call void %28(ptr noundef nonnull align 8 dereferenceable(4488) %7, ptr noundef nonnull align 8 dereferenceable(176) %24, ptr noundef nonnull align 8 dereferenceable(144) %25)
  br label %29

29:                                               ; preds = %23, %17, %11, %10
  ret void
}