; Function Attrs: mustprogress nounwind uwtable
define hidden void @_ZNK5clang6driver10toolchains11Generic_GCC28AddClangCXXStdlibIncludeArgsERKN4llvm3opt7ArgListERNS3_11SmallVectorIPKcLj16EEE(ptr noundef nonnull align 8 dereferenceable(4488) %0, ptr noundef nonnull align 8 dereferenceable(176) %1, ptr noundef nonnull align 8 dereferenceable(144) %2) unnamed_addr #0 align 2 {
  %4 = tail call noundef ptr @_ZNK4llvm3opt7ArgList10getLastArgIJN5clang6driver7options2IDES6_S6_EEEPNS0_3ArgEDpT_(ptr noundef nonnull align 8 dereferenceable(176) %1, i32 noundef 2922, i32 noundef 2921, i32 noundef 2924)
  %.not = icmp eq ptr %4, null
  br i1 %.not, label %5, label %14

5:                                                ; preds = %3
  %6 = load ptr, ptr %0, align 8
  %7 = getelementptr inbounds i8, ptr %6, i64 584
  %8 = load ptr, ptr %7, align 8
  %9 = tail call noundef i32 %8(ptr noundef nonnull align 8 dereferenceable(2168) %0, ptr noundef nonnull align 8 dereferenceable(176) %1) #22
  switch i32 %9, label %14 [
    i32 0, label %.sink.split
    i32 1, label %10
  ]

10:                                               ; preds = %5
  br label %.sink.split

.sink.split:                                      ; preds = %5, %10
  %.sink8 = phi i64 [ 744, %10 ], [ 736, %5 ]
  %11 = load ptr, ptr %0, align 8
  %12 = getelementptr inbounds i8, ptr %11, i64 %.sink8
  %13 = load ptr, ptr %12, align 8
  tail call void %13(ptr noundef nonnull align 8 dereferenceable(4488) %0, ptr noundef nonnull align 8 dereferenceable(176) %1, ptr noundef nonnull align 8 dereferenceable(144) %2) #22
  br label %14

14:                                               ; preds = %.sink.split, %3, %5
  ret void
}